target datalayout = "e-m:e-p270:32:32-p271:32:32-p272:64:64-i64:64-i128:128-f80:128-n8:16:32:64-S128"
target triple = "x86_64-pc-linux-gnu"

%struct.Curl_ssl_session = type { ptr, i64, i64, i32, ptr, i64, ptr, i64, %struct.Curl_llist_node }
%struct.Curl_llist_node = type { ptr, ptr, ptr, ptr }

@Curl_cfree = external global ptr, align 8
@Curl_ccalloc = external global ptr, align 8
@Curl_cstrdup = external global ptr, align 8

; Function Attrs: nounwind uwtable
define internal void @cf_ssl_scache_clear_session(ptr noundef %0) #0 {
  %2 = alloca ptr, align 8
  store ptr %0, ptr %2, align 8, !tbaa !15
  %3 = load ptr, ptr %2, align 8, !tbaa !15
  %4 = getelementptr inbounds nuw %struct.Curl_ssl_session, ptr %3, i32 0, i32 0
  %5 = load ptr, ptr %4, align 8, !tbaa !24
  %6 = icmp ne ptr %5, null
  br i1 %6, label %7, label %14

7:                                                ; preds = %1
  %8 = load ptr, ptr @Curl_cfree, align 8, !tbaa !14
  %9 = load ptr, ptr %2, align 8, !tbaa !15
  %10 = getelementptr inbounds nuw %struct.Curl_ssl_session, ptr %9, i32 0, i32 0
  %11 = load ptr, ptr %10, align 8, !tbaa !24
  call void %8(ptr noundef %11)
  %12 = load ptr, ptr %2, align 8, !tbaa !15
  %13 = getelementptr inbounds nuw %struct.Curl_ssl_session, ptr %12, i32 0, i32 0
  store ptr null, ptr %13, align 8, !tbaa !24
  br label %14

14:                                               ; preds = %7, %1
  %15 = load ptr, ptr %2, align 8, !tbaa !15
  %16 = getelementptr inbounds nuw %struct.Curl_ssl_session, ptr %15, i32 0, i32 1
  store i64 0, ptr %16, align 8, !tbaa !25
  %17 = load ptr, ptr %2, align 8, !tbaa !15
  %18 = getelementptr inbounds nuw %struct.Curl_ssl_session, ptr %17, i32 0, i32 6
  %19 = load ptr, ptr %18, align 8, !tbaa !26
  %20 = icmp ne ptr %19, null
  br i1 %20, label %21, label %28

21:                                               ; preds = %14
  %22 = load ptr, ptr @Curl_cfree, align 8, !tbaa !14
  %23 = load ptr, ptr %2, align 8, !tbaa !15
  %24 = getelementptr inbounds nuw %struct.Curl_ssl_session, ptr %23, i32 0, i32 6
  %25 = load ptr, ptr %24, align 8, !tbaa !26
  call void %22(ptr noundef %25)
  %26 = load ptr, ptr %2, align 8, !tbaa !15
  %27 = getelementptr inbounds nuw %struct.Curl_ssl_session, ptr %26, i32 0, i32 6
  store ptr null, ptr %27, align 8, !tbaa !26
  br label %28

28:                                               ; preds = %21, %14
  %29 = load ptr, ptr %2, align 8, !tbaa !15
  %30 = getelementptr inbounds nuw %struct.Curl_ssl_session, ptr %29, i32 0, i32 7
  store i64 0, ptr %30, align 8, !tbaa !27
  %31 = load ptr, ptr %2, align 8, !tbaa !15
  %32 = getelementptr inbounds nuw %struct.Curl_ssl_session, ptr %31, i32 0, i32 3
  store i32 0, ptr %32, align 8, !tbaa !17
  %33 = load ptr, ptr %2, align 8, !tbaa !15
  %34 = getelementptr inbounds nuw %struct.Curl_ssl_session, ptr %33, i32 0, i32 2
  store i64 0, ptr %34, align 8, !tbaa !22
  br label %35

35:                                               ; preds = %28
  %36 = load ptr, ptr @Curl_cfree, align 8, !tbaa !14
  %37 = load ptr, ptr %2, align 8, !tbaa !15
  %38 = getelementptr inbounds nuw %struct.Curl_ssl_session, ptr %37, i32 0, i32 4
  %39 = load ptr, ptr %38, align 8, !tbaa !28
  call void %36(ptr noundef %39)
  %40 = load ptr, ptr %2, align 8, !tbaa !15
  %41 = getelementptr inbounds nuw %struct.Curl_ssl_session, ptr %40, i32 0, i32 4
  store ptr null, ptr %41, align 8, !tbaa !28
  br label %42

42:                                               ; preds = %35
  ret void
}

; Function Attrs: nounwind uwtable
define internal void @cf_ssl_scache_sesssion_ldestroy(ptr noundef %0, ptr noundef %1) #0 {
  %3 = alloca ptr, align 8
  %4 = alloca ptr, align 8
  store ptr %0, ptr %3, align 8, !tbaa !14
  store ptr %1, ptr %4, align 8, !tbaa !14
  %5 = load ptr, ptr %4, align 8, !tbaa !14
  call void @cf_ssl_scache_clear_session(ptr noundef %5)
  %6 = load ptr, ptr @Curl_cfree, align 8, !tbaa !14
  %7 = load ptr, ptr %4, align 8, !tbaa !14
  call void %6(ptr noundef %7)
  ret void
}

; Function Attrs: nounwind uwtable
define hidden i32 @Curl_ssl_session_create2(ptr noundef %0, i64 noundef %1, i32 noundef %2, ptr noundef %3, i64 noundef %4, i64 noundef %5, ptr noundef %6, i64 noundef %7, ptr noundef %8) #0 {
  %10 = alloca i32, align 4
  %11 = alloca ptr, align 8
  %12 = alloca i64, align 8
  %13 = alloca i32, align 4
  %14 = alloca ptr, align 8
  %15 = alloca i64, align 8
  %16 = alloca i64, align 8
  %17 = alloca ptr, align 8
  %18 = alloca i64, align 8
  %19 = alloca ptr, align 8
  %20 = alloca ptr, align 8
  %21 = alloca i32, align 4
  store ptr %0, ptr %11, align 8, !tbaa !3
  store i64 %1, ptr %12, align 8, !tbaa !8
  store i32 %2, ptr %13, align 4, !tbaa !10
  store ptr %3, ptr %14, align 8, !tbaa !3
  store i64 %4, ptr %15, align 8, !tbaa !8
  store i64 %5, ptr %16, align 8, !tbaa !8
  store ptr %6, ptr %17, align 8, !tbaa !3
  store i64 %7, ptr %18, align 8, !tbaa !8
  store ptr %8, ptr %19, align 8, !tbaa !12
  call void @llvm.lifetime.start.p0(i64 8, ptr %20) #6
  %22 = load ptr, ptr %11, align 8, !tbaa !3
  %23 = icmp ne ptr %22, null
  br i1 %23, label %24, label %27

24:                                               ; preds = %9
  %25 = load i64, ptr %12, align 8, !tbaa !8
  %26 = icmp ne i64 %25, 0
  br i1 %26, label %30, label %27

27:                                               ; preds = %24, %9
  %28 = load ptr, ptr @Curl_cfree, align 8, !tbaa !14
  %29 = load ptr, ptr %11, align 8, !tbaa !3
  call void %28(ptr noundef %29)
  store i32 43, ptr %10, align 4
  store i32 1, ptr %21, align 4
  br label %81

30:                                               ; preds = %24
  %31 = load ptr, ptr %19, align 8, !tbaa !12
  store ptr null, ptr %31, align 8, !tbaa !15
  %32 = load ptr, ptr @Curl_ccalloc, align 8, !tbaa !14
  %33 = call ptr %32(i64 noundef 1, i64 noundef 96)
  store ptr %33, ptr %20, align 8, !tbaa !15
  %34 = load ptr, ptr %20, align 8, !tbaa !15
  %35 = icmp ne ptr %34, null
  br i1 %35, label %41, label %36

36:                                               ; preds = %30
  %37 = load ptr, ptr @Curl_cfree, align 8, !tbaa !14
  %38 = load ptr, ptr %11, align 8, !tbaa !3
  call void %37(ptr noundef %38)
  %39 = load ptr, ptr @Curl_cfree, align 8, !tbaa !14
  %40 = load ptr, ptr %17, align 8, !tbaa !3
  call void %39(ptr noundef %40)
  store i32 27, ptr %10, align 4
  store i32 1, ptr %21, align 4
  br label %81

41:                                               ; preds = %30
  %42 = load i32, ptr %13, align 4, !tbaa !10
  %43 = load ptr, ptr %20, align 8, !tbaa !15
  %44 = getelementptr inbounds nuw %struct.Curl_ssl_session, ptr %43, i32 0, i32 3
  store i32 %42, ptr %44, align 8, !tbaa !17
  %45 = load i64, ptr %15, align 8, !tbaa !8
  %46 = load ptr, ptr %20, align 8, !tbaa !15
  %47 = getelementptr inbounds nuw %struct.Curl_ssl_session, ptr %46, i32 0, i32 2
  store i64 %45, ptr %47, align 8, !tbaa !22
  %48 = load i64, ptr %16, align 8, !tbaa !8
  %49 = load ptr, ptr %20, align 8, !tbaa !15
  %50 = getelementptr inbounds nuw %struct.Curl_ssl_session, ptr %49, i32 0, i32 5
  store i64 %48, ptr %50, align 8, !tbaa !23
  %51 = load ptr, ptr %11, align 8, !tbaa !3
  %52 = load ptr, ptr %20, align 8, !tbaa !15
  %53 = getelementptr inbounds nuw %struct.Curl_ssl_session, ptr %52, i32 0, i32 0
  store ptr %51, ptr %53, align 8, !tbaa !24
  %54 = load i64, ptr %12, align 8, !tbaa !8
  %55 = load ptr, ptr %20, align 8, !tbaa !15
  %56 = getelementptr inbounds nuw %struct.Curl_ssl_session, ptr %55, i32 0, i32 1
  store i64 %54, ptr %56, align 8, !tbaa !25
  %57 = load ptr, ptr %17, align 8, !tbaa !3
  %58 = load ptr, ptr %20, align 8, !tbaa !15
  %59 = getelementptr inbounds nuw %struct.Curl_ssl_session, ptr %58, i32 0, i32 6
  store ptr %57, ptr %59, align 8, !tbaa !26
  %60 = load i64, ptr %18, align 8, !tbaa !8
  %61 = load ptr, ptr %20, align 8, !tbaa !15
  %62 = getelementptr inbounds nuw %struct.Curl_ssl_session, ptr %61, i32 0, i32 7
  store i64 %60, ptr %62, align 8, !tbaa !27
  %63 = load ptr, ptr %14, align 8, !tbaa !3
  %64 = icmp ne ptr %63, null
  br i1 %64, label %65, label %78

65:                                               ; preds = %41
  %66 = load ptr, ptr @Curl_cstrdup, align 8, !tbaa !14
  %67 = load ptr, ptr %14, align 8, !tbaa !3
  %68 = call ptr %66(ptr noundef %67)
  %69 = load ptr, ptr %20, align 8, !tbaa !15
  %70 = getelementptr inbounds nuw %struct.Curl_ssl_session, ptr %69, i32 0, i32 4
  store ptr %68, ptr %70, align 8, !tbaa !28
  %71 = load ptr, ptr %20, align 8, !tbaa !15
  %72 = getelementptr inbounds nuw %struct.Curl_ssl_session, ptr %71, i32 0, i32 4
  %73 = load ptr, ptr %72, align 8, !tbaa !28
  %74 = icmp ne ptr %73, null
  br i1 %74, label %77, label %75

75:                                               ; preds = %65
  %76 = load ptr, ptr %20, align 8, !tbaa !15
  call void @cf_ssl_scache_sesssion_ldestroy(ptr noundef null, ptr noundef %76)
  store i32 27, ptr %10, align 4
  store i32 1, ptr %21, align 4
  br label %81

77:                                               ; preds = %65
  br label %78

78:                                               ; preds = %77, %41
  %79 = load ptr, ptr %20, align 8, !tbaa !15
  %80 = load ptr, ptr %19, align 8, !tbaa !12
  store ptr %79, ptr %80, align 8, !tbaa !15
  store i32 0, ptr %10, align 4
  store i32 1, ptr %21, align 4
  br label %81

81:                                               ; preds = %78, %75, %36, %27
  call void @llvm.lifetime.end.p0(i64 8, ptr %20) #6
  %82 = load i32, ptr %10, align 4
  ret i32 %82
}