; Function Attrs: nounwind uwtable
define hidden range(i32 0, 44) i32 @Curl_ssl_session_create2(ptr noundef %0, i64 noundef %1, i32 noundef %2, ptr noundef %3, i64 noundef %4, i64 noundef %5, ptr noundef %6, i64 noundef %7, ptr noundef writeonly captures(none) %8) local_unnamed_addr #0 {
  %10 = icmp ne ptr %0, null
  %11 = icmp ne i64 %1, 0
  %or.cond = and i1 %10, %11
  br i1 %or.cond, label %14, label %12

12:                                               ; preds = %9
  %13 = load ptr, ptr @Curl_cfree, align 8, !tbaa !3
  tail call void %13(ptr noundef %0) #9
  br label %43

14:                                               ; preds = %9
  store ptr null, ptr %8, align 8, !tbaa !7
  %15 = load ptr, ptr @Curl_ccalloc, align 8, !tbaa !3
  %16 = tail call ptr %15(i64 noundef 1, i64 noundef 96) #9
  %.not = icmp eq ptr %16, null
  br i1 %.not, label %17, label %20

17:                                               ; preds = %14
  %18 = load ptr, ptr @Curl_cfree, align 8, !tbaa !3
  tail call void %18(ptr noundef nonnull %0) #9
  %19 = load ptr, ptr @Curl_cfree, align 8, !tbaa !3
  tail call void %19(ptr noundef %6) #9
  br label %43

20:                                               ; preds = %14
  %21 = getelementptr inbounds nuw i8, ptr %16, i64 24
  store i32 %2, ptr %21, align 8, !tbaa !9
  %22 = getelementptr inbounds nuw i8, ptr %16, i64 16
  store i64 %4, ptr %22, align 8, !tbaa !17
  %23 = getelementptr inbounds nuw i8, ptr %16, i64 40
  store i64 %5, ptr %23, align 8, !tbaa !18
  store ptr %0, ptr %16, align 8, !tbaa !19
  %24 = getelementptr inbounds nuw i8, ptr %16, i64 8
  store i64 %1, ptr %24, align 8, !tbaa !20
  %25 = getelementptr inbounds nuw i8, ptr %16, i64 48
  store ptr %6, ptr %25, align 8, !tbaa !22
  %26 = getelementptr inbounds nuw i8, ptr %16, i64 56
  store i64 %7, ptr %26, align 8, !tbaa !23
  %.not33 = icmp eq ptr %3, null
  br i1 %.not33, label %42, label %27

27:                                               ; preds = %20
  %28 = load ptr, ptr @Curl_cstrdup, align 8, !tbaa !3
  %29 = tail call ptr %28(ptr noundef nonnull %3) #9
  %30 = getelementptr inbounds nuw i8, ptr %16, i64 32
  store ptr %29, ptr %30, align 8, !tbaa !21
  %.not34 = icmp eq ptr %29, null
  br i1 %.not34, label %31, label %42

31:                                               ; preds = %27
  %32 = load ptr, ptr %16, align 8, !tbaa !19
  %.not.i.i = icmp eq ptr %32, null
  br i1 %.not.i.i, label %35, label %33

33:                                               ; preds = %31
  %34 = load ptr, ptr @Curl_cfree, align 8, !tbaa !3
  tail call void %34(ptr noundef nonnull %32) #9
  store ptr null, ptr %16, align 8, !tbaa !19
  br label %35

35:                                               ; preds = %33, %31
  store i64 0, ptr %24, align 8, !tbaa !20
  %36 = load ptr, ptr %25, align 8, !tbaa !22
  %.not13.i.i = icmp eq ptr %36, null
  br i1 %.not13.i.i, label %cf_ssl_scache_sesssion_ldestroy.exit, label %37

37:                                               ; preds = %35
  %38 = load ptr, ptr @Curl_cfree, align 8, !tbaa !3
  tail call void %38(ptr noundef nonnull %36) #9
  store ptr null, ptr %25, align 8, !tbaa !22
  br label %cf_ssl_scache_sesssion_ldestroy.exit

cf_ssl_scache_sesssion_ldestroy.exit:             ; preds = %35, %37
  store i64 0, ptr %26, align 8, !tbaa !23
  store i32 0, ptr %21, align 8, !tbaa !9
  store i64 0, ptr %22, align 8, !tbaa !17
  %39 = load ptr, ptr @Curl_cfree, align 8, !tbaa !3
  %40 = load ptr, ptr %30, align 8, !tbaa !21
  tail call void %39(ptr noundef %40) #9
  store ptr null, ptr %30, align 8, !tbaa !21
  %41 = load ptr, ptr @Curl_cfree, align 8, !tbaa !3
  tail call void %41(ptr noundef nonnull %16) #9
  br label %43

42:                                               ; preds = %27, %20
  store ptr %16, ptr %8, align 8, !tbaa !7
  br label %43

43:                                               ; preds = %42, %cf_ssl_scache_sesssion_ldestroy.exit, %17, %12
  %.0 = phi i32 [ 0, %42 ], [ 27, %cf_ssl_scache_sesssion_ldestroy.exit ], [ 27, %17 ], [ 43, %12 ]
  ret i32 %.0
}